; Function Attrs: mustprogress nounwind uwtable
define hidden noundef i32 @_ZN14JfrOSInterface8cpu_loadEiPd(i32 noundef %0, ptr noundef %1) local_unnamed_addr #1 align 2 {
  %3 = load ptr, ptr @_ZL9_instance, align 8
  %4 = load ptr, ptr %3, align 8
  %5 = tail call noundef ptr @_ZN14JfrOSInterface18JfrOSInterfaceImpl18cpu_perf_interfaceEv(ptr noundef nonnull align 8 dereferenceable(32) %4)
  %6 = icmp eq ptr %5, null
  br i1 %6, label %_ZN14JfrOSInterface18JfrOSInterfaceImpl8cpu_loadEiPd.exit, label %7

7:                                                ; preds = %2
  %8 = tail call noundef i32 @_ZNK23CPUPerformanceInterface8cpu_loadEiPd(ptr noundef nonnull align 8 dereferenceable(8) %5, i32 noundef %0, ptr noundef %1) #14
  br label %_ZN14JfrOSInterface18JfrOSInterfaceImpl8cpu_loadEiPd.exit

_ZN14JfrOSInterface18JfrOSInterfaceImpl8cpu_loadEiPd.exit: ; preds = %2, %7
  %9 = phi i32 [ %8, %7 ], [ -1, %2 ]
  ret i32 %9
}